; ModuleID = '23/1160.c'
source_filename = "23/1160.c"
target datalayout = "e-m:e-p270:32:32-p271:32:32-p272:64:64-i64:64-f80:128-n8:16:32:64-S128"
target triple = "x86_64-pc-linux-gnu"

@.str = private unnamed_addr constant [3 x i8] c"%s\00", align 1

; Function Attrs: noinline nounwind uwtable
define dso_local void @main() #0 {
  %1 = alloca i32, align 4
  %2 = alloca [103 x i8], align 16
  %3 = alloca [103 x i8], align 16
  %4 = alloca [103 x i8], align 16
  %5 = alloca i8*, align 8
  %6 = alloca i8*, align 8
  %7 = alloca i8*, align 8
  %8 = bitcast [103 x i8]* %2 to i8*
  call void @llvm.memset.p0i8.i64(i8* align 16 %8, i8 0, i64 103, i1 false)
  %9 = bitcast i8* %8 to [103 x i8]*
  %10 = getelementptr inbounds [103 x i8], [103 x i8]* %9, i32 0, i32 0
  store i8 32, i8* %10, align 16
  %11 = bitcast [103 x i8]* %3 to i8*
  call void @llvm.memset.p0i8.i64(i8* align 16 %11, i8 0, i64 103, i1 false)
  %12 = bitcast i8* %11 to [103 x i8]*
  %13 = getelementptr inbounds [103 x i8], [103 x i8]* %12, i32 0, i32 0
  store i8 32, i8* %13, align 16
  %14 = bitcast [103 x i8]* %4 to i8*
  call void @llvm.memset.p0i8.i64(i8* align 16 %14, i8 0, i64 103, i1 false)
  %15 = bitcast i8* %14 to [103 x i8]*
  %16 = getelementptr inbounds [103 x i8], [103 x i8]* %15, i32 0, i32 0
  store i8 32, i8* %16, align 16
  %17 = getelementptr inbounds [103 x i8], [103 x i8]* %2, i64 0, i64 0
  %18 = call i32 (i8*, ...) bitcast (i32 (...)* @gets to i32 (i8*, ...)*)(i8* %17)
  %19 = getelementptr inbounds [103 x i8], [103 x i8]* %2, i64 0, i64 0
  %20 = getelementptr inbounds [103 x i8], [103 x i8]* %3, i64 0, i64 0
  %21 = call i8* @strcat(i8* %19, i8* %20) #5
  %22 = getelementptr inbounds [103 x i8], [103 x i8]* %3, i64 0, i64 0
  %23 = getelementptr inbounds [103 x i8], [103 x i8]* %2, i64 0, i64 0
  %24 = call i8* @strcat(i8* %22, i8* %23) #5
  %25 = getelementptr inbounds [103 x i8], [103 x i8]* %3, i64 0, i64 0
  %26 = call i64 @strlen(i8* %25) #6
  %27 = trunc i64 %26 to i32
  store i32 %27, i32* %1, align 4
  %28 = getelementptr inbounds [103 x i8], [103 x i8]* %4, i64 0, i64 0
  store i8* %28, i8** %7, align 8
  %29 = getelementptr inbounds [103 x i8], [103 x i8]* %3, i64 0, i64 0
  %30 = load i32, i32* %1, align 4
  %31 = sext i32 %30 to i64
  %32 = getelementptr inbounds i8, i8* %29, i64 %31
  %33 = getelementptr inbounds i8, i8* %32, i64 -2
  store i8* %33, i8** %5, align 8
  br label %34

34:                                               ; preds = %65, %0
  %35 = load i8*, i8** %5, align 8
  %36 = getelementptr inbounds [103 x i8], [103 x i8]* %3, i64 0, i64 0
  %37 = icmp uge i8* %35, %36
  br i1 %37, label %38, label %68

38:                                               ; preds = %34
  %39 = load i8*, i8** %5, align 8
  %40 = load i8, i8* %39, align 1
  %41 = sext i8 %40 to i32
  %42 = icmp eq i32 %41, 32
  br i1 %42, label %43, label %63

43:                                               ; preds = %38
  %44 = load i8*, i8** %5, align 8
  %45 = getelementptr inbounds i8, i8* %44, i64 1
  store i8* %45, i8** %6, align 8
  br label %46

46:                                               ; preds = %54, %43
  %47 = load i8*, i8** %6, align 8
  %48 = load i8, i8* %47, align 1
  %49 = load i8*, i8** %7, align 8
  store i8 %48, i8* %49, align 1
  %50 = load i8*, i8** %7, align 8
  %51 = getelementptr inbounds i8, i8* %50, i32 1
  store i8* %51, i8** %7, align 8
  %52 = load i8*, i8** %6, align 8
  %53 = getelementptr inbounds i8, i8* %52, i32 1
  store i8* %53, i8** %6, align 8
  br label %54

54:                                               ; preds = %46
  %55 = load i8*, i8** %6, align 8
  %56 = load i8, i8* %55, align 1
  %57 = sext i8 %56 to i32
  %58 = icmp ne i32 %57, 32
  br i1 %58, label %46, label %59

59:                                               ; preds = %54
  %60 = load i8*, i8** %7, align 8
  store i8 32, i8* %60, align 1
  %61 = load i8*, i8** %7, align 8
  %62 = getelementptr inbounds i8, i8* %61, i32 1
  store i8* %62, i8** %7, align 8
  br label %64

63:                                               ; preds = %38
  br label %65

64:                                               ; preds = %59
  br label %65

65:                                               ; preds = %64, %63
  %66 = load i8*, i8** %5, align 8
  %67 = getelementptr inbounds i8, i8* %66, i32 -1
  store i8* %67, i8** %5, align 8
  br label %34

68:                                               ; preds = %34
  %69 = load i8*, i8** %7, align 8
  %70 = getelementptr inbounds i8, i8* %69, i64 -1
  store i8 0, i8* %70, align 1
  %71 = getelementptr inbounds [103 x i8], [103 x i8]* %4, i64 0, i64 0
  %72 = call i32 (i8*, ...) @printf(i8* getelementptr inbounds ([3 x i8], [3 x i8]* @.str, i64 0, i64 0), i8* %71)
  ret void
}

; Function Attrs: argmemonly nounwind willreturn
declare void @llvm.memset.p0i8.i64(i8* nocapture writeonly, i8, i64, i1 immarg) #1

declare dso_local i32 @gets(...) #2

; Function Attrs: nounwind
declare dso_local i8* @strcat(i8*, i8*) #3

; Function Attrs: nounwind readonly
declare dso_local i64 @strlen(i8*) #4

declare dso_local i32 @printf(i8*, ...) #2


!llvm.module.flags = !{!0}
!llvm.ident = !{!1}

!0 = !{i32 1, !"wchar_size", i32 4}
!1 = !{!"clang version 10.0.0-4ubuntu1 "}
